target datalayout = "e-m:e-p270:32:32-p271:32:32-p272:64:64-i64:64-i128:128-f80:128-n8:16:32:64-S128"
target triple = "x86_64-pc-linux-gnu"

%struct.chunkfile = type { ptr, ptr, i64, i64 }

; Function Attrs: nounwind uwtable
define dso_local void @free_chunkfile(ptr noundef %0) #0 {
  %2 = alloca ptr, align 8
  store ptr %0, ptr %2, align 8, !tbaa !9
  %3 = load ptr, ptr %2, align 8, !tbaa !9
  %4 = icmp ne ptr %3, null
  br i1 %4, label %6, label %5

5:                                                ; preds = %1
  br label %11

6:                                                ; preds = %1
  %7 = load ptr, ptr %2, align 8, !tbaa !9
  %8 = getelementptr inbounds nuw %struct.chunkfile, ptr %7, i32 0, i32 1
  %9 = load ptr, ptr %8, align 8, !tbaa !15
  call void @free(ptr noundef %9) #7
  %10 = load ptr, ptr %2, align 8, !tbaa !9
  call void @free(ptr noundef %10) #7
  br label %11

11:                                               ; preds = %6, %5
  ret void
}