; Function Attrs: mustprogress nounwind willreturn uwtable
define dso_local void @free_chunkfile(ptr noundef %0) local_unnamed_addr #3 {
  %.not = icmp eq ptr %0, null
  br i1 %.not, label %5, label %2

2:                                                ; preds = %1
  %3 = getelementptr inbounds nuw i8, ptr %0, i64 8
  %4 = load ptr, ptr %3, align 8, !tbaa !12
  tail call void @free(ptr noundef %4) #11
  tail call void @free(ptr noundef nonnull %0) #11
  br label %5

5:                                                ; preds = %1, %2
  ret void
}